target datalayout = "e-m:e-p270:32:32-p271:32:32-p272:64:64-i64:64-i128:128-f80:128-n8:16:32:64-S128"
target triple = "x86_64-pc-linux-gnu"

%class.QString = type { %struct.QArrayDataPointer }
%struct.QArrayDataPointer = type { ptr, ptr, i64 }
%class.QPaintDevice.base = type <{ ptr, i16 }>
%class.TCPStreamDialog = type { %class.GeometryStateDialog, ptr, ptr, %class.QMultiMap, double, i8, %class.QMap, double, i8, %struct.tcp_graph, ptr, %class.QString, ptr, ptr, ptr, ptr, ptr, ptr, ptr, ptr, ptr, ptr, ptr, ptr, ptr, ptr, %class.QRectF, i32, [4 x i8], %class.QTransform, i8, ptr, %class.QPoint, %class.QMenu, %"class.TCPStreamDialog::GraphUpdater", i32, i32, i32, double }
%class.GeometryStateDialog = type { %class.QDialog, %class.QString }
%class.QDialog = type { %class.QWidget }
%class.QWidget = type { %class.QObject, %class.QPaintDevice.base, ptr }
%class.QObject = type { ptr, %class.QScopedPointer }
%class.QScopedPointer = type { ptr }
%class.QMultiMap = type { %"class.QtPrivate::QExplicitlySharedDataPointerV2" }
%"class.QtPrivate::QExplicitlySharedDataPointerV2" = type { ptr }
%class.QMap = type { %"class.QtPrivate::QExplicitlySharedDataPointerV2.5" }
%"class.QtPrivate::QExplicitlySharedDataPointerV2.5" = type { ptr }
%struct.tcp_graph = type { i32, %struct._address, i16, %struct._address, i16, i32, ptr }
%struct._address = type { i32, i32, ptr, ptr }
%class.QRectF = type { double, double, double, double }
%class.QTransform = type <{ [3 x [3 x double]], i16, [6 x i8] }>
%class.QPoint = type { i32, i32 }
%class.QMenu = type { %class.QWidget }
%"class.TCPStreamDialog::GraphUpdater" = type <{ ptr, ptr, i8, [7 x i8] }>
%class.Ui_TCPStreamDialog = type { ptr, ptr, ptr, ptr, ptr, ptr, ptr, ptr, ptr, ptr, ptr, ptr, ptr, ptr, ptr, ptr, ptr, ptr, ptr, ptr, ptr, ptr, ptr, ptr, ptr, ptr, ptr, ptr, ptr, ptr, ptr, ptr, ptr, ptr, ptr, ptr, ptr, ptr, ptr, ptr, ptr, ptr, ptr, ptr, ptr, ptr, ptr, ptr, ptr, ptr, ptr, ptr, ptr, ptr, ptr, ptr, ptr }

; Function Attrs: mustprogress uwtable
define void @_ZN15TCPStreamDialog12GraphUpdater18clearPendingUpdateEv(ptr noundef nonnull align 8 dereferenceable(17) %0) #1 align 2 {
  %2 = alloca ptr, align 8
  store ptr %0, ptr %2, align 8
  %3 = load ptr, ptr %2, align 8
  %4 = call noundef zeroext i1 @_ZN15TCPStreamDialog12GraphUpdater16hasPendingUpdateEv(ptr noundef nonnull align 8 dereferenceable(17) %3)
  br i1 %4, label %5, label %23

5:                                                ; preds = %1
  %6 = getelementptr inbounds %"class.TCPStreamDialog::GraphUpdater", ptr %3, i32 0, i32 1
  %7 = load ptr, ptr %6, align 8
  %8 = call noundef zeroext i1 @_ZNK6QTimer8isActiveEv(ptr noundef nonnull align 8 dereferenceable(16) %7)
  br i1 %8, label %9, label %12

9:                                                ; preds = %5
  %10 = getelementptr inbounds %"class.TCPStreamDialog::GraphUpdater", ptr %3, i32 0, i32 1
  %11 = load ptr, ptr %10, align 8
  call void @_ZN6QTimer4stopEv(ptr noundef nonnull align 8 dereferenceable(16) %11)
  br label %12

12:                                               ; preds = %9, %5
  %13 = getelementptr inbounds %"class.TCPStreamDialog::GraphUpdater", ptr %3, i32 0, i32 1
  %14 = load ptr, ptr %13, align 8
  %15 = icmp eq ptr %14, null
  br i1 %15, label %20, label %16

16:                                               ; preds = %12
  %17 = load ptr, ptr %14, align 8
  %18 = getelementptr inbounds ptr, ptr %17, i64 4
  %19 = load ptr, ptr %18, align 8
  call void %19(ptr noundef nonnull align 8 dereferenceable(16) %14) #3
  br label %20

20:                                               ; preds = %16, %12
  %21 = getelementptr inbounds %"class.TCPStreamDialog::GraphUpdater", ptr %3, i32 0, i32 1
  store ptr null, ptr %21, align 8
  %22 = getelementptr inbounds %"class.TCPStreamDialog::GraphUpdater", ptr %3, i32 0, i32 2
  store i8 0, ptr %22, align 8
  br label %23

23:                                               ; preds = %20, %1
  ret void
}

; Function Attrs: mustprogress nounwind uwtable
define linkonce_odr noundef zeroext i1 @_ZN15TCPStreamDialog12GraphUpdater16hasPendingUpdateEv(ptr noundef nonnull align 8 dereferenceable(17) %0) #2 comdat align 2 {
  %2 = alloca ptr, align 8
  store ptr %0, ptr %2, align 8
  %3 = load ptr, ptr %2, align 8
  %4 = getelementptr inbounds %"class.TCPStreamDialog::GraphUpdater", ptr %3, i32 0, i32 1
  %5 = load ptr, ptr %4, align 8
  %6 = icmp ne ptr %5, null
  ret i1 %6
}

; Function Attrs: mustprogress uwtable
define void @_ZN15TCPStreamDialog12GraphUpdater8doUpdateEv(ptr noundef nonnull align 8 dereferenceable(17) %0) #1 align 2 {
  %2 = alloca ptr, align 8
  %3 = alloca i8, align 1
  %4 = alloca i32, align 4
  store ptr %0, ptr %2, align 8
  %5 = load ptr, ptr %2, align 8
  %6 = call noundef zeroext i1 @_ZN15TCPStreamDialog12GraphUpdater16hasPendingUpdateEv(ptr noundef nonnull align 8 dereferenceable(17) %5)
  br i1 %6, label %7, label %46

7:                                                ; preds = %1
  %8 = getelementptr inbounds %"class.TCPStreamDialog::GraphUpdater", ptr %5, i32 0, i32 2
  %9 = load i8, ptr %8, align 8
  %10 = trunc i8 %9 to i1
  %11 = zext i1 %10 to i8
  store i8 %11, ptr %3, align 1
  call void @_ZN15TCPStreamDialog12GraphUpdater18clearPendingUpdateEv(ptr noundef nonnull align 8 dereferenceable(17) %5)
  %12 = getelementptr inbounds %"class.TCPStreamDialog::GraphUpdater", ptr %5, i32 0, i32 0
  %13 = load ptr, ptr %12, align 8
  %14 = getelementptr inbounds %class.TCPStreamDialog, ptr %13, i32 0, i32 1
  %15 = load ptr, ptr %14, align 8
  %16 = getelementptr inbounds %class.Ui_TCPStreamDialog, ptr %15, i32 0, i32 40
  %17 = load ptr, ptr %16, align 8
  %18 = call noundef i32 @_ZNK8QSpinBox5valueEv(ptr noundef nonnull align 8 dereferenceable(40) %17)
  store i32 %18, ptr %4, align 4
  %19 = getelementptr inbounds %"class.TCPStreamDialog::GraphUpdater", ptr %5, i32 0, i32 0
  %20 = load ptr, ptr %19, align 8
  %21 = getelementptr inbounds %class.TCPStreamDialog, ptr %20, i32 0, i32 9
  %22 = getelementptr inbounds %struct.tcp_graph, ptr %21, i32 0, i32 5
  %23 = load i32, ptr %22, align 4
  %24 = load i32, ptr %4, align 4
  %25 = icmp ne i32 %23, %24
  br i1 %25, label %26, label %41

26:                                               ; preds = %7
  %27 = load i32, ptr %4, align 4
  %28 = icmp sge i32 %27, 0
  br i1 %28, label %29, label %41

29:                                               ; preds = %26
  %30 = load i32, ptr %4, align 4
  %31 = call i32 @get_tcp_stream_count()
  %32 = icmp slt i32 %30, %31
  br i1 %32, label %33, label %41

33:                                               ; preds = %29
  %34 = load i32, ptr %4, align 4
  %35 = getelementptr inbounds %"class.TCPStreamDialog::GraphUpdater", ptr %5, i32 0, i32 0
  %36 = load ptr, ptr %35, align 8
  %37 = getelementptr inbounds %class.TCPStreamDialog, ptr %36, i32 0, i32 9
  %38 = getelementptr inbounds %struct.tcp_graph, ptr %37, i32 0, i32 5
  store i32 %34, ptr %38, align 4
  %39 = getelementptr inbounds %"class.TCPStreamDialog::GraphUpdater", ptr %5, i32 0, i32 0
  %40 = load ptr, ptr %39, align 8
  call void @_ZN15TCPStreamDialog10findStreamEv(ptr noundef nonnull align 8 dereferenceable(584) %40)
  br label %41

41:                                               ; preds = %33, %29, %26, %7
  %42 = getelementptr inbounds %"class.TCPStreamDialog::GraphUpdater", ptr %5, i32 0, i32 0
  %43 = load ptr, ptr %42, align 8
  %44 = load i8, ptr %3, align 1
  %45 = trunc i8 %44 to i1
  call void @_ZN15TCPStreamDialog9fillGraphEbb(ptr noundef nonnull align 8 dereferenceable(584) %43, i1 noundef zeroext %45, i1 noundef zeroext false)
  br label %46

46:                                               ; preds = %41, %1
  ret void
}