; Function Attrs: mustprogress uwtable
define void @_ZN15TCPStreamDialog12GraphUpdater8doUpdateEv(ptr nocapture noundef nonnull align 8 dereferenceable(17) %0) local_unnamed_addr #2 align 2 {
  %2 = getelementptr inbounds i8, ptr %0, i64 8
  %3 = load ptr, ptr %2, align 8
  %.not = icmp eq ptr %3, null
  br i1 %.not, label %38, label %4

4:                                                ; preds = %1
  %5 = getelementptr inbounds i8, ptr %0, i64 16
  %6 = load i8, ptr %5, align 8
  %7 = and i8 %6, 1
  %8 = icmp ne i8 %7, 0
  %9 = tail call noundef zeroext i1 @_ZNK6QTimer8isActiveEv(ptr noundef nonnull align 8 dereferenceable(16) %3)
  br i1 %9, label %10, label %12

10:                                               ; preds = %4
  %11 = load ptr, ptr %2, align 8
  tail call void @_ZN6QTimer4stopEv(ptr noundef nonnull align 8 dereferenceable(16) %11)
  br label %12

12:                                               ; preds = %10, %4
  %13 = load ptr, ptr %2, align 8
  %14 = icmp eq ptr %13, null
  br i1 %14, label %_ZN15TCPStreamDialog12GraphUpdater18clearPendingUpdateEv.exit, label %15

15:                                               ; preds = %12
  %16 = load ptr, ptr %13, align 8
  %17 = getelementptr inbounds i8, ptr %16, i64 32
  %18 = load ptr, ptr %17, align 8
  tail call void %18(ptr noundef nonnull align 8 dereferenceable(16) %13) #24
  br label %_ZN15TCPStreamDialog12GraphUpdater18clearPendingUpdateEv.exit

_ZN15TCPStreamDialog12GraphUpdater18clearPendingUpdateEv.exit: ; preds = %12, %15
  store ptr null, ptr %2, align 8
  store i8 0, ptr %5, align 8
  %19 = load ptr, ptr %0, align 8
  %20 = getelementptr inbounds i8, ptr %19, i64 64
  %21 = load ptr, ptr %20, align 8
  %22 = getelementptr inbounds i8, ptr %21, i64 320
  %23 = load ptr, ptr %22, align 8
  %24 = tail call noundef i32 @_ZNK8QSpinBox5valueEv(ptr noundef nonnull align 8 dereferenceable(40) %23)
  %25 = load ptr, ptr %0, align 8
  %26 = getelementptr inbounds i8, ptr %25, i64 196
  %27 = load i32, ptr %26, align 4
  %28 = icmp ne i32 %27, %24
  %29 = icmp sgt i32 %24, -1
  %or.cond = and i1 %29, %28
  br i1 %or.cond, label %30, label %36

30:                                               ; preds = %_ZN15TCPStreamDialog12GraphUpdater18clearPendingUpdateEv.exit
  %31 = tail call i32 @get_tcp_stream_count()
  %32 = icmp slt i32 %24, %31
  %.pre6 = load ptr, ptr %0, align 8
  br i1 %32, label %33, label %36

33:                                               ; preds = %30
  %34 = getelementptr inbounds i8, ptr %.pre6, i64 196
  store i32 %24, ptr %34, align 4
  %35 = load ptr, ptr %0, align 8
  tail call void @_ZN15TCPStreamDialog10findStreamEv(ptr noundef nonnull align 8 dereferenceable(584) %35)
  %.pre = load ptr, ptr %0, align 8
  br label %36

36:                                               ; preds = %33, %30, %_ZN15TCPStreamDialog12GraphUpdater18clearPendingUpdateEv.exit
  %37 = phi ptr [ %.pre, %33 ], [ %.pre6, %30 ], [ %25, %_ZN15TCPStreamDialog12GraphUpdater18clearPendingUpdateEv.exit ]
  tail call void @_ZN15TCPStreamDialog9fillGraphEbb(ptr noundef nonnull align 8 dereferenceable(584) %37, i1 noundef zeroext %8, i1 noundef zeroext false)
  br label %38

38:                                               ; preds = %36, %1
  ret void
}